target datalayout = "e-m:e-p270:32:32-p271:32:32-p272:64:64-i64:64-i128:128-f80:128-n8:16:32:64-S128"
target triple = "x86_64-pc-linux-gnu"

%struct.Poly1305 = type { [3 x i64], [3 x i64], [2 x i64], i64, [16 x i8], i8 }
%struct.timespec = type { i64, i64 }

@err_prefix = internal constant [1 x i8] zeroinitializer, align 1
@bench_size = internal global i32 1048576, align 4
@numBlocks = internal global i32 5, align 4
@bench_plain = internal thread_local global ptr null, align 8
@bench_key = internal thread_local global ptr null, align 8
@digest_stream = internal global i32 1, align 4
@.str.32 = private unnamed_addr constant [33 x i8] c"Poly1305SetKey failed, ret = %d\0A\00", align 1
@.str.33 = private unnamed_addr constant [27 x i8] c"Poly1305Update failed: %d\0A\00", align 1
@.str.34 = private unnamed_addr constant [9 x i8] c"POLY1305\00", align 1
@.str.78 = private unnamed_addr constant [28 x i8] c"%s%s L%d error %d for \22%s\22\0A\00", align 1
@.str.79 = private unnamed_addr constant [125 x i8] c"generated/home/dtcxzyw/WorkSpace/Projects/compilers/llvm-opt-benchmark/bench/wolfssl/wolfssl/wolfcrypt/benchmark/benchmark.c\00", align 1
@.str.80 = private unnamed_addr constant [35 x i8] c"clock_gettime(CLOCK_REALTIME, &tv)\00", align 1
@stdout = external global ptr, align 8
@total_cycles = internal thread_local global i64 0, align 8

; Function Attrs: inlinehint nounwind uwtable
define internal i64 @get_intel_cycles() #3 {
  %1 = alloca i32, align 4
  %2 = alloca i32, align 4
  call void @llvm.lifetime.start.p0(i64 4, ptr %1) #12
  call void @llvm.lifetime.start.p0(i64 4, ptr %2) #12
  %3 = call { i32, i32 } asm sideeffect "cpuid\0A\09rdtsc", "={ax},={dx},{ax},~{ebx},~{ecx},~{dirflag},~{fpsr},~{flags}"(i32 0) #12, !srcloc !261
  %4 = extractvalue { i32, i32 } %3, 0
  %5 = extractvalue { i32, i32 } %3, 1
  store i32 %4, ptr %1, align 4, !tbaa !4
  store i32 %5, ptr %2, align 4, !tbaa !4
  %6 = load i32, ptr %1, align 4, !tbaa !4
  %7 = zext i32 %6 to i64
  %8 = load i32, ptr %2, align 4, !tbaa !4
  %9 = zext i32 %8 to i64
  %10 = shl i64 %9, 32
  %11 = or i64 %7, %10
  call void @llvm.lifetime.end.p0(i64 4, ptr %2) #12
  call void @llvm.lifetime.end.p0(i64 4, ptr %1) #12
  ret i64 %11
}

; Function Attrs: nounwind uwtable
define dso_local double @current_time(i32 noundef %0) #0 {
  %2 = alloca i32, align 4
  %3 = alloca %struct.timespec, align 8
  %4 = alloca i32, align 4
  store i32 %0, ptr %2, align 4, !tbaa !4
  call void @llvm.lifetime.start.p0(i64 16, ptr %3) #12
  br label %5

5:                                                ; preds = %1
  call void @llvm.lifetime.start.p0(i64 4, ptr %4) #12
  %6 = call i32 @clock_gettime(i32 noundef 0, ptr noundef %3) #12
  store i32 %6, ptr %4, align 4, !tbaa !4
  %7 = load i32, ptr %4, align 4, !tbaa !4
  %8 = icmp slt i32 %7, 0
  br i1 %8, label %9, label %15

9:                                                ; preds = %5
  %10 = call ptr @__errno_location() #14
  %11 = load i32, ptr %10, align 4, !tbaa !4
  %12 = call i32 (ptr, ...) @printf(ptr noundef @.str.78, ptr noundef @err_prefix, ptr noundef @.str.79, i32 noundef 14994, i32 noundef %11, ptr noundef @.str.80)
  %13 = load ptr, ptr @stdout, align 8, !tbaa !14
  %14 = call i32 @fflush(ptr noundef %13)
  call void @_exit(i32 noundef 1) #15
  unreachable

15:                                               ; preds = %5
  call void @llvm.lifetime.end.p0(i64 4, ptr %4) #12
  br label %16

16:                                               ; preds = %15
  br label %17

17:                                               ; preds = %16
  %18 = getelementptr inbounds nuw %struct.timespec, ptr %3, i32 0, i32 0
  %19 = load i64, ptr %18, align 8, !tbaa !241
  %20 = sitofp i64 %19 to double
  %21 = getelementptr inbounds nuw %struct.timespec, ptr %3, i32 0, i32 1
  %22 = load i64, ptr %21, align 8, !tbaa !243
  %23 = sitofp i64 %22 to double
  %24 = fdiv double %23, 1.000000e+09
  %25 = fadd double %20, %24
  call void @llvm.lifetime.end.p0(i64 16, ptr %3) #12
  ret double %25
}

; Function Attrs: inlinehint nounwind uwtable
define internal i32 @bench_stats_check(double noundef %0) #3 {
  %2 = alloca double, align 8
  %3 = alloca i32, align 4
  %4 = alloca double, align 8
  store double %0, ptr %2, align 8, !tbaa !20
  call void @llvm.lifetime.start.p0(i64 4, ptr %3) #12
  store i32 0, ptr %3, align 4, !tbaa !4
  call void @llvm.lifetime.start.p0(i64 8, ptr %4) #12
  store double 0.000000e+00, ptr %4, align 8, !tbaa !20
  %5 = call double @current_time(i32 noundef 0)
  store double %5, ptr %4, align 8, !tbaa !20
  %6 = load double, ptr %4, align 8, !tbaa !20
  %7 = load double, ptr %2, align 8, !tbaa !20
  %8 = fsub double %6, %7
  %9 = fcmp olt double %8, 1.000000e+00
  %10 = zext i1 %9 to i32
  store i32 %10, ptr %3, align 4, !tbaa !4
  %11 = load i32, ptr %3, align 4, !tbaa !4
  call void @llvm.lifetime.end.p0(i64 8, ptr %4) #12
  call void @llvm.lifetime.end.p0(i64 4, ptr %3) #12
  ret i32 %11
}

; Function Attrs: inlinehint nounwind uwtable
define internal void @bench_stats_start(ptr noundef %0, ptr noundef %1) #3 {
  %3 = alloca ptr, align 8
  %4 = alloca ptr, align 8
  store ptr %0, ptr %3, align 8, !tbaa !23
  store ptr %1, ptr %4, align 8, !tbaa !25
  %5 = load ptr, ptr %3, align 8, !tbaa !23
  store i32 0, ptr %5, align 4, !tbaa !4
  %6 = call double @current_time(i32 noundef 1)
  %7 = load ptr, ptr %4, align 8, !tbaa !25
  store double %6, ptr %7, align 8, !tbaa !20
  %8 = call i64 @get_intel_cycles()
  %9 = call align 8 ptr @llvm.threadlocal.address.p0(ptr align 8 @total_cycles)
  store i64 %8, ptr %9, align 8, !tbaa !10
  ret void
}

; Function Attrs: nounwind uwtable
define dso_local void @bench_poly1305() #0 {
  %1 = alloca %struct.Poly1305, align 8
  %2 = alloca [16 x i8], align 16
  %3 = alloca double, align 8
  %4 = alloca i32, align 4
  %5 = alloca i32, align 4
  %6 = alloca i32, align 4
  %7 = alloca i32, align 4
  call void @llvm.lifetime.start.p0(i64 96, ptr %1) #12
  call void @llvm.lifetime.start.p0(i64 16, ptr %2) #12
  call void @llvm.lifetime.start.p0(i64 8, ptr %3) #12
  call void @llvm.lifetime.start.p0(i64 4, ptr %4) #12
  store i32 0, ptr %4, align 4, !tbaa !4
  call void @llvm.lifetime.start.p0(i64 4, ptr %5) #12
  call void @llvm.lifetime.start.p0(i64 4, ptr %6) #12
  %8 = load i32, ptr @digest_stream, align 4, !tbaa !4
  %9 = icmp ne i32 %8, 0
  br i1 %9, label %10, label %53

10:                                               ; preds = %0
  %11 = call align 8 ptr @llvm.threadlocal.address.p0(ptr align 8 @bench_key)
  %12 = load ptr, ptr %11, align 8, !tbaa !12
  %13 = call i32 @wc_Poly1305SetKey(ptr noundef %1, ptr noundef %12, i32 noundef 32)
  store i32 %13, ptr %4, align 4, !tbaa !4
  %14 = load i32, ptr %4, align 4, !tbaa !4
  %15 = icmp ne i32 %14, 0
  br i1 %15, label %16, label %19

16:                                               ; preds = %10
  %17 = load i32, ptr %4, align 4, !tbaa !4
  %18 = call i32 (ptr, ...) @printf(ptr noundef @.str.32, i32 noundef %17)
  store i32 1, ptr %7, align 4
  br label %101

19:                                               ; preds = %10
  call void @bench_stats_start(ptr noundef %6, ptr noundef %3)
  br label %20

20:                                               ; preds = %48, %19
  store i32 0, ptr %5, align 4, !tbaa !4
  br label %21

21:                                               ; preds = %39, %20
  %22 = load i32, ptr %5, align 4, !tbaa !4
  %23 = load i32, ptr @numBlocks, align 4, !tbaa !4
  %24 = icmp slt i32 %22, %23
  br i1 %24, label %25, label %42

25:                                               ; preds = %21
  %26 = call align 8 ptr @llvm.threadlocal.address.p0(ptr align 8 @bench_plain)
  %27 = load ptr, ptr %26, align 8, !tbaa !12
  %28 = load i32, ptr @bench_size, align 4, !tbaa !4
  %29 = call i32 @wc_Poly1305Update(ptr noundef %1, ptr noundef %27, i32 noundef %28)
  store i32 %29, ptr %4, align 4, !tbaa !4
  %30 = load i32, ptr %4, align 4, !tbaa !4
  %31 = icmp ne i32 %30, 0
  br i1 %31, label %32, label %35

32:                                               ; preds = %25
  %33 = load i32, ptr %4, align 4, !tbaa !4
  %34 = call i32 (ptr, ...) @printf(ptr noundef @.str.33, i32 noundef %33)
  br label %42

35:                                               ; preds = %25
  br label %36

36:                                               ; preds = %35
  br label %37

37:                                               ; preds = %36
  br label %38

38:                                               ; preds = %37
  br label %39

39:                                               ; preds = %38
  %40 = load i32, ptr %5, align 4, !tbaa !4
  %41 = add nsw i32 %40, 1
  store i32 %41, ptr %5, align 4, !tbaa !4
  br label %21, !llvm.loop !49

42:                                               ; preds = %32, %21
  %43 = getelementptr inbounds [16 x i8], ptr %2, i64 0, i64 0
  %44 = call i32 @wc_Poly1305Final(ptr noundef %1, ptr noundef %43)
  %45 = load i32, ptr %5, align 4, !tbaa !4
  %46 = load i32, ptr %6, align 4, !tbaa !4
  %47 = add nsw i32 %46, %45
  store i32 %47, ptr %6, align 4, !tbaa !4
  br label %48

48:                                               ; preds = %42
  %49 = load double, ptr %3, align 8, !tbaa !20
  %50 = call i32 @bench_stats_check(double noundef %49)
  %51 = icmp ne i32 %50, 0
  br i1 %51, label %20, label %52, !llvm.loop !50

52:                                               ; preds = %48
  br label %96

53:                                               ; preds = %0
  call void @bench_stats_start(ptr noundef %6, ptr noundef %3)
  br label %54

54:                                               ; preds = %91, %53
  store i32 0, ptr %5, align 4, !tbaa !4
  br label %55

55:                                               ; preds = %84, %54
  %56 = load i32, ptr %5, align 4, !tbaa !4
  %57 = load i32, ptr @numBlocks, align 4, !tbaa !4
  %58 = icmp slt i32 %56, %57
  br i1 %58, label %59, label %87

59:                                               ; preds = %55
  %60 = call align 8 ptr @llvm.threadlocal.address.p0(ptr align 8 @bench_key)
  %61 = load ptr, ptr %60, align 8, !tbaa !12
  %62 = call i32 @wc_Poly1305SetKey(ptr noundef %1, ptr noundef %61, i32 noundef 32)
  store i32 %62, ptr %4, align 4, !tbaa !4
  %63 = load i32, ptr %4, align 4, !tbaa !4
  %64 = icmp ne i32 %63, 0
  br i1 %64, label %65, label %68

65:                                               ; preds = %59
  %66 = load i32, ptr %4, align 4, !tbaa !4
  %67 = call i32 (ptr, ...) @printf(ptr noundef @.str.32, i32 noundef %66)
  store i32 1, ptr %7, align 4
  br label %101

68:                                               ; preds = %59
  %69 = call align 8 ptr @llvm.threadlocal.address.p0(ptr align 8 @bench_plain)
  %70 = load ptr, ptr %69, align 8, !tbaa !12
  %71 = load i32, ptr @bench_size, align 4, !tbaa !4
  %72 = call i32 @wc_Poly1305Update(ptr noundef %1, ptr noundef %70, i32 noundef %71)
  store i32 %72, ptr %4, align 4, !tbaa !4
  %73 = load i32, ptr %4, align 4, !tbaa !4
  %74 = icmp ne i32 %73, 0
  br i1 %74, label %75, label %78

75:                                               ; preds = %68
  %76 = load i32, ptr %4, align 4, !tbaa !4
  %77 = call i32 (ptr, ...) @printf(ptr noundef @.str.33, i32 noundef %76)
  br label %87

78:                                               ; preds = %68
  %79 = getelementptr inbounds [16 x i8], ptr %2, i64 0, i64 0
  %80 = call i32 @wc_Poly1305Final(ptr noundef %1, ptr noundef %79)
  br label %81

81:                                               ; preds = %78
  br label %82

82:                                               ; preds = %81
  br label %83

83:                                               ; preds = %82
  br label %84

84:                                               ; preds = %83
  %85 = load i32, ptr %5, align 4, !tbaa !4
  %86 = add nsw i32 %85, 1
  store i32 %86, ptr %5, align 4, !tbaa !4
  br label %55, !llvm.loop !51

87:                                               ; preds = %75, %55
  %88 = load i32, ptr %5, align 4, !tbaa !4
  %89 = load i32, ptr %6, align 4, !tbaa !4
  %90 = add nsw i32 %89, %88
  store i32 %90, ptr %6, align 4, !tbaa !4
  br label %91

91:                                               ; preds = %87
  %92 = load double, ptr %3, align 8, !tbaa !20
  %93 = call i32 @bench_stats_check(double noundef %92)
  %94 = icmp ne i32 %93, 0
  br i1 %94, label %54, label %95, !llvm.loop !52

95:                                               ; preds = %91
  br label %96

96:                                               ; preds = %95, %52
  %97 = load i32, ptr %6, align 4, !tbaa !4
  %98 = load i32, ptr @bench_size, align 4, !tbaa !4
  %99 = load double, ptr %3, align 8, !tbaa !20
  %100 = load i32, ptr %4, align 4, !tbaa !4
  call void @bench_stats_sym_finish(ptr noundef @.str.34, i32 noundef 0, i32 noundef %97, i32 noundef %98, double noundef %99, i32 noundef %100)
  store i32 0, ptr %7, align 4
  br label %101

101:                                              ; preds = %96, %65, %16
  call void @llvm.lifetime.end.p0(i64 4, ptr %6) #12
  call void @llvm.lifetime.end.p0(i64 4, ptr %5) #12
  call void @llvm.lifetime.end.p0(i64 4, ptr %4) #12
  call void @llvm.lifetime.end.p0(i64 8, ptr %3) #12
  call void @llvm.lifetime.end.p0(i64 16, ptr %2) #12
  call void @llvm.lifetime.end.p0(i64 96, ptr %1) #12
  %102 = load i32, ptr %7, align 4
  switch i32 %102, label %104 [
    i32 0, label %103
    i32 1, label %103
  ]

103:                                              ; preds = %101, %101
  ret void

104:                                              ; preds = %101
  unreachable
}