; Function Attrs: nounwind uwtable
define dso_local void @bench_poly1305() local_unnamed_addr #0 {
  %1 = alloca %struct.timespec, align 8
  %2 = alloca %struct.timespec, align 8
  %3 = alloca %struct.timespec, align 8
  %4 = alloca %struct.timespec, align 8
  %5 = alloca %struct.Poly1305, align 8
  %6 = alloca [16 x i8], align 16
  call void @llvm.lifetime.start.p0(i64 96, ptr nonnull %5) #16
  call void @llvm.lifetime.start.p0(i64 16, ptr nonnull %6) #16
  %.b = load i1, ptr @digest_stream, align 4
  br i1 %.b, label %69, label %7

7:                                                ; preds = %0
  %8 = tail call align 8 ptr @llvm.threadlocal.address.p0(ptr align 8 @bench_key)
  %9 = load ptr, ptr %8, align 8, !tbaa !8
  %10 = call i32 @wc_Poly1305SetKey(ptr noundef nonnull %5, ptr noundef %9, i32 noundef 32) #16
  %.not26 = icmp eq i32 %10, 0
  br i1 %.not26, label %13, label %11

11:                                               ; preds = %7
  %12 = call i32 (ptr, ...) @printf(ptr noundef nonnull dereferenceable(1) @.str.32, i32 noundef %10)
  br label %132

13:                                               ; preds = %7
  call void @llvm.lifetime.start.p0(i64 16, ptr nonnull %4) #16
  %14 = call i32 @clock_gettime(i32 noundef 0, ptr noundef nonnull %4) #16
  %15 = icmp slt i32 %14, 0
  br i1 %15, label %16, label %bench_stats_start.exit

16:                                               ; preds = %13
  %17 = tail call ptr @__errno_location() #17
  %18 = load i32, ptr %17, align 4, !tbaa !4
  %19 = call i32 (ptr, ...) @printf(ptr noundef nonnull dereferenceable(1) @.str.78, ptr noundef nonnull @.str.113, ptr noundef nonnull @.str.79, i32 noundef 14994, i32 noundef %18, ptr noundef nonnull @.str.80)
  %20 = load ptr, ptr @stdout, align 8, !tbaa !14
  %21 = call i32 @fflush(ptr noundef %20)
  call void @_exit(i32 noundef 1) #18
  unreachable

bench_stats_start.exit:                           ; preds = %13
  %22 = load i64, ptr %4, align 8, !tbaa !16
  %23 = sitofp i64 %22 to double
  %24 = getelementptr inbounds nuw i8, ptr %4, i64 8
  %25 = load i64, ptr %24, align 8, !tbaa !19
  %26 = sitofp i64 %25 to double
  %27 = fdiv double %26, 1.000000e+09
  %28 = fadd double %27, %23
  call void @llvm.lifetime.end.p0(i64 16, ptr nonnull %4) #16
  %29 = call { i32, i32 } asm sideeffect "cpuid\0A\09rdtsc", "={ax},={dx},{ax},~{ebx},~{ecx},~{dirflag},~{fpsr},~{flags}"(i32 0) #16, !srcloc !20
  %30 = extractvalue { i32, i32 } %29, 0
  %31 = extractvalue { i32, i32 } %29, 1
  %32 = zext i32 %30 to i64
  %33 = zext i32 %31 to i64
  %34 = shl nuw i64 %33, 32
  %35 = or disjoint i64 %34, %32
  %36 = call align 8 ptr @llvm.threadlocal.address.p0(ptr align 8 @total_cycles)
  store i64 %35, ptr %36, align 8, !tbaa !21
  %37 = call align 8 ptr @llvm.threadlocal.address.p0(ptr align 8 @bench_plain)
  %38 = getelementptr inbounds nuw i8, ptr %3, i64 8
  br label %39

39:                                               ; preds = %bench_stats_check.exit, %bench_stats_start.exit
  %.035 = phi i32 [ 0, %bench_stats_start.exit ], [ %60, %bench_stats_check.exit ]
  %.015 = phi i32 [ 0, %bench_stats_start.exit ], [ %.2, %bench_stats_check.exit ]
  %40 = load i32, ptr @numBlocks, align 4, !tbaa !4
  %41 = icmp sgt i32 %40, 0
  br i1 %41, label %.lr.ph, label %.loopexit40

.lr.ph:                                           ; preds = %39, %47
  %.057 = phi i32 [ %48, %47 ], [ 0, %39 ]
  %42 = load ptr, ptr %37, align 8, !tbaa !8
  %43 = load i32, ptr @bench_size, align 4, !tbaa !4
  %44 = call i32 @wc_Poly1305Update(ptr noundef nonnull %5, ptr noundef %42, i32 noundef %43) #16
  %.not27 = icmp eq i32 %44, 0
  br i1 %.not27, label %47, label %45

45:                                               ; preds = %.lr.ph
  %46 = call i32 (ptr, ...) @printf(ptr noundef nonnull dereferenceable(1) @.str.33, i32 noundef %44)
  br label %.loopexit40

47:                                               ; preds = %.lr.ph
  %48 = add nuw nsw i32 %.057, 1
  %49 = load i32, ptr @numBlocks, align 4, !tbaa !4
  %50 = icmp slt i32 %48, %49
  br i1 %50, label %.lr.ph, label %.loopexit40, !llvm.loop !30

.loopexit40:                                      ; preds = %47, %39, %45
  %.052 = phi i32 [ %.057, %45 ], [ 0, %39 ], [ %48, %47 ]
  %.2 = phi i32 [ %44, %45 ], [ %.015, %39 ], [ 0, %47 ]
  %51 = call i32 @wc_Poly1305Final(ptr noundef nonnull %5, ptr noundef nonnull %6) #16
  call void @llvm.lifetime.start.p0(i64 16, ptr nonnull %3) #16
  %52 = call i32 @clock_gettime(i32 noundef 0, ptr noundef nonnull %3) #16
  %53 = icmp slt i32 %52, 0
  br i1 %53, label %54, label %bench_stats_check.exit

54:                                               ; preds = %.loopexit40
  %55 = tail call ptr @__errno_location() #17
  %56 = load i32, ptr %55, align 4, !tbaa !4
  %57 = call i32 (ptr, ...) @printf(ptr noundef nonnull dereferenceable(1) @.str.78, ptr noundef nonnull @.str.113, ptr noundef nonnull @.str.79, i32 noundef 14994, i32 noundef %56, ptr noundef nonnull @.str.80)
  %58 = load ptr, ptr @stdout, align 8, !tbaa !14
  %59 = call i32 @fflush(ptr noundef %58)
  call void @_exit(i32 noundef 1) #18
  unreachable

bench_stats_check.exit:                           ; preds = %.loopexit40
  %60 = add nuw nsw i32 %.052, %.035
  %61 = load i64, ptr %3, align 8, !tbaa !16
  %62 = sitofp i64 %61 to double
  %63 = load i64, ptr %38, align 8, !tbaa !19
  %64 = sitofp i64 %63 to double
  %65 = fdiv double %64, 1.000000e+09
  %66 = fadd double %65, %62
  call void @llvm.lifetime.end.p0(i64 16, ptr nonnull %3) #16
  %67 = fsub double %66, %28
  %68 = fcmp uge double %67, 1.000000e+00
  br i1 %68, label %.loopexit39, label %39, !llvm.loop !31

69:                                               ; preds = %0
  call void @llvm.lifetime.start.p0(i64 16, ptr nonnull %2) #16
  %70 = call i32 @clock_gettime(i32 noundef 0, ptr noundef nonnull %2) #16
  %71 = icmp slt i32 %70, 0
  br i1 %71, label %72, label %bench_stats_start.exit29

72:                                               ; preds = %69
  %73 = tail call ptr @__errno_location() #17
  %74 = load i32, ptr %73, align 4, !tbaa !4
  %75 = call i32 (ptr, ...) @printf(ptr noundef nonnull dereferenceable(1) @.str.78, ptr noundef nonnull @.str.113, ptr noundef nonnull @.str.79, i32 noundef 14994, i32 noundef %74, ptr noundef nonnull @.str.80)
  %76 = load ptr, ptr @stdout, align 8, !tbaa !14
  %77 = call i32 @fflush(ptr noundef %76)
  call void @_exit(i32 noundef 1) #18
  unreachable

bench_stats_start.exit29:                         ; preds = %69
  %78 = load i64, ptr %2, align 8, !tbaa !16
  %79 = sitofp i64 %78 to double
  %80 = getelementptr inbounds nuw i8, ptr %2, i64 8
  %81 = load i64, ptr %80, align 8, !tbaa !19
  %82 = sitofp i64 %81 to double
  %83 = fdiv double %82, 1.000000e+09
  %84 = fadd double %83, %79
  call void @llvm.lifetime.end.p0(i64 16, ptr nonnull %2) #16
  %85 = call { i32, i32 } asm sideeffect "cpuid\0A\09rdtsc", "={ax},={dx},{ax},~{ebx},~{ecx},~{dirflag},~{fpsr},~{flags}"(i32 0) #16, !srcloc !20
  %86 = extractvalue { i32, i32 } %85, 0
  %87 = extractvalue { i32, i32 } %85, 1
  %88 = zext i32 %86 to i64
  %89 = zext i32 %87 to i64
  %90 = shl nuw i64 %89, 32
  %91 = or disjoint i64 %90, %88
  %92 = call align 8 ptr @llvm.threadlocal.address.p0(ptr align 8 @total_cycles)
  store i64 %91, ptr %92, align 8, !tbaa !21
  %93 = call align 8 ptr @llvm.threadlocal.address.p0(ptr align 8 @bench_key)
  %94 = call align 8 ptr @llvm.threadlocal.address.p0(ptr align 8 @bench_plain)
  %95 = getelementptr inbounds nuw i8, ptr %1, i64 8
  br label %96

96:                                               ; preds = %bench_stats_check.exit30, %bench_stats_start.exit29
  %.237 = phi i32 [ 0, %bench_stats_start.exit29 ], [ %122, %bench_stats_check.exit30 ]
  %.4 = phi i32 [ 0, %bench_stats_start.exit29 ], [ %.6, %bench_stats_check.exit30 ]
  %97 = load i32, ptr @numBlocks, align 4, !tbaa !4
  %98 = icmp sgt i32 %97, 0
  br i1 %98, label %.lr.ph60, label %.loopexit

.lr.ph60:                                         ; preds = %96, %109
  %.159 = phi i32 [ %111, %109 ], [ 0, %96 ]
  %99 = load ptr, ptr %93, align 8, !tbaa !8
  %100 = call i32 @wc_Poly1305SetKey(ptr noundef nonnull %5, ptr noundef %99, i32 noundef 32) #16
  %.not = icmp eq i32 %100, 0
  br i1 %.not, label %103, label %101

101:                                              ; preds = %.lr.ph60
  %102 = call i32 (ptr, ...) @printf(ptr noundef nonnull dereferenceable(1) @.str.32, i32 noundef %100)
  br label %132

103:                                              ; preds = %.lr.ph60
  %104 = load ptr, ptr %94, align 8, !tbaa !8
  %105 = load i32, ptr @bench_size, align 4, !tbaa !4
  %106 = call i32 @wc_Poly1305Update(ptr noundef nonnull %5, ptr noundef %104, i32 noundef %105) #16
  %.not24 = icmp eq i32 %106, 0
  br i1 %.not24, label %109, label %107

107:                                              ; preds = %103
  %108 = call i32 (ptr, ...) @printf(ptr noundef nonnull dereferenceable(1) @.str.33, i32 noundef %106)
  br label %.loopexit

109:                                              ; preds = %103
  %110 = call i32 @wc_Poly1305Final(ptr noundef nonnull %5, ptr noundef nonnull %6) #16
  %111 = add nuw nsw i32 %.159, 1
  %112 = load i32, ptr @numBlocks, align 4, !tbaa !4
  %113 = icmp slt i32 %111, %112
  br i1 %113, label %.lr.ph60, label %.loopexit, !llvm.loop !32

.loopexit:                                        ; preds = %109, %96, %107
  %.144 = phi i32 [ %.159, %107 ], [ 0, %96 ], [ %111, %109 ]
  %.6 = phi i32 [ %106, %107 ], [ %.4, %96 ], [ 0, %109 ]
  call void @llvm.lifetime.start.p0(i64 16, ptr nonnull %1) #16
  %114 = call i32 @clock_gettime(i32 noundef 0, ptr noundef nonnull %1) #16
  %115 = icmp slt i32 %114, 0
  br i1 %115, label %116, label %bench_stats_check.exit30

116:                                              ; preds = %.loopexit
  %117 = tail call ptr @__errno_location() #17
  %118 = load i32, ptr %117, align 4, !tbaa !4
  %119 = call i32 (ptr, ...) @printf(ptr noundef nonnull dereferenceable(1) @.str.78, ptr noundef nonnull @.str.113, ptr noundef nonnull @.str.79, i32 noundef 14994, i32 noundef %118, ptr noundef nonnull @.str.80)
  %120 = load ptr, ptr @stdout, align 8, !tbaa !14
  %121 = call i32 @fflush(ptr noundef %120)
  call void @_exit(i32 noundef 1) #18
  unreachable

bench_stats_check.exit30:                         ; preds = %.loopexit
  %122 = add nuw nsw i32 %.144, %.237
  %123 = load i64, ptr %1, align 8, !tbaa !16
  %124 = sitofp i64 %123 to double
  %125 = load i64, ptr %95, align 8, !tbaa !19
  %126 = sitofp i64 %125 to double
  %127 = fdiv double %126, 1.000000e+09
  %128 = fadd double %127, %124
  call void @llvm.lifetime.end.p0(i64 16, ptr nonnull %1) #16
  %129 = fsub double %128, %84
  %130 = fcmp uge double %129, 1.000000e+00
  br i1 %130, label %.loopexit39, label %96, !llvm.loop !33

.loopexit39:                                      ; preds = %bench_stats_check.exit, %bench_stats_check.exit30
  %.038 = phi double [ %84, %bench_stats_check.exit30 ], [ %28, %bench_stats_check.exit ]
  %.136 = phi i32 [ %122, %bench_stats_check.exit30 ], [ %60, %bench_stats_check.exit ]
  %.3 = phi i32 [ %.6, %bench_stats_check.exit30 ], [ %.2, %bench_stats_check.exit ]
  %131 = load i32, ptr @bench_size, align 4, !tbaa !4
  call fastcc void @bench_stats_sym_finish(ptr noundef nonnull @.str.34, i32 noundef %.136, i32 noundef %131, double noundef %.038, i32 noundef %.3)
  br label %132

132:                                              ; preds = %.loopexit39, %101, %11
  call void @llvm.lifetime.end.p0(i64 16, ptr nonnull %6) #16
  call void @llvm.lifetime.end.p0(i64 96, ptr nonnull %5) #16
  ret void
}